; Function Attrs: mustprogress nofree norecurse nosync nounwind willreturn memory(argmem: readwrite) uwtable
define internal i32 @declClose(ptr noundef captures(none) %0, i32 noundef %1, ptr readnone captures(none) %2, ptr readnone captures(none) %3, ptr readnone captures(none) %4) #3 {
  switch i32 %1, label %12 [
    i32 15, label %6
    i32 17, label %9
  ]

6:                                                ; preds = %5
  %7 = getelementptr inbounds nuw i8, ptr %0, i64 12
  %8 = load i32, ptr %7, align 4, !tbaa !13
  br label %13

9:                                                ; preds = %5
  store ptr @internalSubset, ptr %0, align 8, !tbaa !4
  %10 = getelementptr inbounds nuw i8, ptr %0, i64 12
  %11 = load i32, ptr %10, align 4, !tbaa !13
  br label %13

12:                                               ; preds = %5
  store ptr @error, ptr %0, align 8, !tbaa !4
  br label %13

13:                                               ; preds = %12, %9, %6
  %.0 = phi i32 [ -1, %12 ], [ %11, %9 ], [ %8, %6 ]
  ret i32 %.0
}